target datalayout = "e-m:e-p270:32:32-p271:32:32-p272:64:64-i64:64-i128:128-f80:128-n8:16:32:64-S128"
target triple = "x86_64-pc-linux-gnu"

%"class.icu_77::LocalPointer" = type { %"class.icu_77::LocalPointerBase" }
%"class.icu_77::LocalPointerBase" = type { ptr }
%"class.icu_77::(anonymous namespace)::MutableCodePointTrie" = type { ptr, i32, i32, ptr, i32, i32, i32, i32, i32, i32, i32, i32, ptr, [69632 x i8] }

; Function Attrs: mustprogress nounwind uwtable
define internal void @_ZN6icu_7716LocalPointerBaseINS_12_GLOBAL__N_120MutableCodePointTrieEED2Ev(ptr noundef nonnull align 8 dereferenceable(8) %0) unnamed_addr #4 align 2 {
  %2 = alloca ptr, align 8
  store ptr %0, ptr %2, align 8, !tbaa !31
  ret void
}

; Function Attrs: mustprogress nounwind uwtable
define internal void @_ZN6icu_7712_GLOBAL__N_120MutableCodePointTrieD2Ev(ptr noundef nonnull align 8 dereferenceable(69696) %0) unnamed_addr #4 align 2 personality ptr @__gxx_personality_v0 {
  %2 = alloca ptr, align 8
  store ptr %0, ptr %2, align 8, !tbaa !11
  %3 = load ptr, ptr %2, align 8
  %4 = getelementptr inbounds nuw %"class.icu_77::(anonymous namespace)::MutableCodePointTrie", ptr %3, i32 0, i32 0
  %5 = load ptr, ptr %4, align 8, !tbaa !13
  invoke void @uprv_free_77(ptr noundef %5)
          to label %6 unwind label %13

6:                                                ; preds = %1
  %7 = getelementptr inbounds nuw %"class.icu_77::(anonymous namespace)::MutableCodePointTrie", ptr %3, i32 0, i32 3
  %8 = load ptr, ptr %7, align 8, !tbaa !19
  invoke void @uprv_free_77(ptr noundef %8)
          to label %9 unwind label %13

9:                                                ; preds = %6
  %10 = getelementptr inbounds nuw %"class.icu_77::(anonymous namespace)::MutableCodePointTrie", ptr %3, i32 0, i32 12
  %11 = load ptr, ptr %10, align 8, !tbaa !28
  invoke void @uprv_free_77(ptr noundef %11)
          to label %12 unwind label %13

12:                                               ; preds = %9
  ret void

13:                                               ; preds = %9, %6, %1
  %14 = landingpad { ptr, i32 }
          catch ptr null
  %15 = extractvalue { ptr, i32 } %14, 0
  call void @__clang_call_terminate(ptr %15) #13
  unreachable
}

; Function Attrs: inlinehint mustprogress nounwind uwtable
define internal noundef signext i8 @_ZL9U_SUCCESS10UErrorCode(i32 noundef %0) #1 {
  %2 = alloca i32, align 4
  store i32 %0, ptr %2, align 4, !tbaa !9
  %3 = load i32, ptr %2, align 4, !tbaa !9
  %4 = icmp sle i32 %3, 0
  %5 = zext i1 %4 to i8
  ret i8 %5
}

; Function Attrs: mustprogress nounwind uwtable
define internal void @_ZN6icu_7716LocalPointerBaseINS_12_GLOBAL__N_120MutableCodePointTrieEEC2EPS2_(ptr noundef nonnull align 8 dereferenceable(8) %0, ptr noundef %1) unnamed_addr #4 align 2 {
  %3 = alloca ptr, align 8
  %4 = alloca ptr, align 8
  store ptr %0, ptr %3, align 8, !tbaa !31
  store ptr %1, ptr %4, align 8, !tbaa !11
  %5 = load ptr, ptr %3, align 8
  %6 = getelementptr inbounds nuw %"class.icu_77::LocalPointerBase", ptr %5, i32 0, i32 0
  %7 = load ptr, ptr %4, align 8, !tbaa !11
  store ptr %7, ptr %6, align 8, !tbaa !33
  ret void
}

; Function Attrs: mustprogress nounwind uwtable
define internal noundef ptr @_ZN6icu_7716LocalPointerBaseINS_12_GLOBAL__N_120MutableCodePointTrieEE6orphanEv(ptr noundef nonnull align 8 dereferenceable(8) %0) #4 align 2 {
  %2 = alloca ptr, align 8
  %3 = alloca ptr, align 8
  store ptr %0, ptr %2, align 8, !tbaa !31
  %4 = load ptr, ptr %2, align 8
  call void @llvm.lifetime.start.p0(i64 8, ptr %3) #11
  %5 = getelementptr inbounds nuw %"class.icu_77::LocalPointerBase", ptr %4, i32 0, i32 0
  %6 = load ptr, ptr %5, align 8, !tbaa !33
  store ptr %6, ptr %3, align 8, !tbaa !11
  %7 = getelementptr inbounds nuw %"class.icu_77::LocalPointerBase", ptr %4, i32 0, i32 0
  store ptr null, ptr %7, align 8, !tbaa !33
  %8 = load ptr, ptr %3, align 8, !tbaa !11
  call void @llvm.lifetime.end.p0(i64 8, ptr %3) #11
  ret ptr %8
}

; Function Attrs: mustprogress nounwind uwtable
define internal void @_ZN6icu_7712LocalPointerINS_12_GLOBAL__N_120MutableCodePointTrieEED2Ev(ptr noundef nonnull align 8 dereferenceable(8) %0) unnamed_addr #4 align 2 {
  %2 = alloca ptr, align 8
  store ptr %0, ptr %2, align 8, !tbaa !29
  %3 = load ptr, ptr %2, align 8
  %4 = getelementptr inbounds nuw %"class.icu_77::LocalPointerBase", ptr %3, i32 0, i32 0
  %5 = load ptr, ptr %4, align 8, !tbaa !33
  %6 = icmp eq ptr %5, null
  br i1 %6, label %8, label %7

7:                                                ; preds = %1
  call void @_ZN6icu_7712_GLOBAL__N_120MutableCodePointTrieD2Ev(ptr noundef nonnull align 8 dereferenceable(69696) %5) #11
  call void @_ZN6icu_777UMemorydlEPv(ptr noundef %5) #11
  br label %8

8:                                                ; preds = %7, %1
  call void @_ZN6icu_7716LocalPointerBaseINS_12_GLOBAL__N_120MutableCodePointTrieEED2Ev(ptr noundef nonnull align 8 dereferenceable(8) %3) #11
  ret void
}

; Function Attrs: mustprogress uwtable
define internal void @_ZN6icu_7712LocalPointerINS_12_GLOBAL__N_120MutableCodePointTrieEEC2EPS2_R10UErrorCode(ptr noundef nonnull align 8 dereferenceable(8) %0, ptr noundef %1, ptr noundef nonnull align 4 dereferenceable(4) %2) unnamed_addr #0 align 2 {
  %4 = alloca ptr, align 8
  %5 = alloca ptr, align 8
  %6 = alloca ptr, align 8
  store ptr %0, ptr %4, align 8, !tbaa !29
  store ptr %1, ptr %5, align 8, !tbaa !11
  store ptr %2, ptr %6, align 8, !tbaa !7
  %7 = load ptr, ptr %4, align 8
  %8 = load ptr, ptr %5, align 8, !tbaa !11
  call void @_ZN6icu_7716LocalPointerBaseINS_12_GLOBAL__N_120MutableCodePointTrieEEC2EPS2_(ptr noundef nonnull align 8 dereferenceable(8) %7, ptr noundef %8)
  %9 = load ptr, ptr %5, align 8, !tbaa !11
  %10 = icmp eq ptr %9, null
  br i1 %10, label %11, label %18

11:                                               ; preds = %3
  %12 = load ptr, ptr %6, align 8, !tbaa !7
  %13 = load i32, ptr %12, align 4, !tbaa !9
  %14 = call noundef signext i8 @_ZL9U_SUCCESS10UErrorCode(i32 noundef %13)
  %15 = icmp ne i8 %14, 0
  br i1 %15, label %16, label %18

16:                                               ; preds = %11
  %17 = load ptr, ptr %6, align 8, !tbaa !7
  store i32 7, ptr %17, align 4, !tbaa !9
  br label %18

18:                                               ; preds = %16, %11, %3
  ret void
}

; Function Attrs: mustprogress uwtable
define internal void @_ZN6icu_7712_GLOBAL__N_120MutableCodePointTrieC2EjjR10UErrorCode(ptr noundef nonnull align 8 dereferenceable(69696) %0, i32 noundef %1, i32 noundef %2, ptr noundef nonnull align 4 dereferenceable(4) %3) unnamed_addr #0 align 2 {
  %5 = alloca ptr, align 8
  %6 = alloca i32, align 4
  %7 = alloca i32, align 4
  %8 = alloca ptr, align 8
  store ptr %0, ptr %5, align 8, !tbaa !11
  store i32 %1, ptr %6, align 4, !tbaa !3
  store i32 %2, ptr %7, align 4, !tbaa !3
  store ptr %3, ptr %8, align 8, !tbaa !7
  %9 = load ptr, ptr %5, align 8
  %10 = getelementptr inbounds nuw %"class.icu_77::(anonymous namespace)::MutableCodePointTrie", ptr %9, i32 0, i32 0
  store ptr null, ptr %10, align 8, !tbaa !13
  %11 = getelementptr inbounds nuw %"class.icu_77::(anonymous namespace)::MutableCodePointTrie", ptr %9, i32 0, i32 1
  store i32 0, ptr %11, align 8, !tbaa !17
  %12 = getelementptr inbounds nuw %"class.icu_77::(anonymous namespace)::MutableCodePointTrie", ptr %9, i32 0, i32 2
  store i32 -1, ptr %12, align 4, !tbaa !18
  %13 = getelementptr inbounds nuw %"class.icu_77::(anonymous namespace)::MutableCodePointTrie", ptr %9, i32 0, i32 3
  store ptr null, ptr %13, align 8, !tbaa !19
  %14 = getelementptr inbounds nuw %"class.icu_77::(anonymous namespace)::MutableCodePointTrie", ptr %9, i32 0, i32 4
  store i32 0, ptr %14, align 8, !tbaa !20
  %15 = getelementptr inbounds nuw %"class.icu_77::(anonymous namespace)::MutableCodePointTrie", ptr %9, i32 0, i32 5
  store i32 0, ptr %15, align 4, !tbaa !21
  %16 = getelementptr inbounds nuw %"class.icu_77::(anonymous namespace)::MutableCodePointTrie", ptr %9, i32 0, i32 6
  store i32 -1, ptr %16, align 8, !tbaa !22
  %17 = getelementptr inbounds nuw %"class.icu_77::(anonymous namespace)::MutableCodePointTrie", ptr %9, i32 0, i32 7
  %18 = load i32, ptr %6, align 4, !tbaa !3
  store i32 %18, ptr %17, align 4, !tbaa !23
  %19 = getelementptr inbounds nuw %"class.icu_77::(anonymous namespace)::MutableCodePointTrie", ptr %9, i32 0, i32 8
  %20 = load i32, ptr %6, align 4, !tbaa !3
  store i32 %20, ptr %19, align 8, !tbaa !24
  %21 = getelementptr inbounds nuw %"class.icu_77::(anonymous namespace)::MutableCodePointTrie", ptr %9, i32 0, i32 9
  %22 = load i32, ptr %7, align 4, !tbaa !3
  store i32 %22, ptr %21, align 4, !tbaa !25
  %23 = getelementptr inbounds nuw %"class.icu_77::(anonymous namespace)::MutableCodePointTrie", ptr %9, i32 0, i32 10
  store i32 0, ptr %23, align 8, !tbaa !26
  %24 = getelementptr inbounds nuw %"class.icu_77::(anonymous namespace)::MutableCodePointTrie", ptr %9, i32 0, i32 11
  %25 = getelementptr inbounds nuw %"class.icu_77::(anonymous namespace)::MutableCodePointTrie", ptr %9, i32 0, i32 8
  %26 = load i32, ptr %25, align 8, !tbaa !24
  store i32 %26, ptr %24, align 4, !tbaa !27
  %27 = getelementptr inbounds nuw %"class.icu_77::(anonymous namespace)::MutableCodePointTrie", ptr %9, i32 0, i32 12
  store ptr null, ptr %27, align 8, !tbaa !28
  %28 = load ptr, ptr %8, align 8, !tbaa !7
  %29 = load i32, ptr %28, align 4, !tbaa !9
  %30 = call noundef signext i8 @_ZL9U_FAILURE10UErrorCode(i32 noundef %29)
  %31 = icmp ne i8 %30, 0
  br i1 %31, label %32, label %33

32:                                               ; preds = %4
  br label %50

33:                                               ; preds = %4
  %34 = call noalias ptr @uprv_malloc_77(i64 noundef 16384) #12
  %35 = getelementptr inbounds nuw %"class.icu_77::(anonymous namespace)::MutableCodePointTrie", ptr %9, i32 0, i32 0
  store ptr %34, ptr %35, align 8, !tbaa !13
  %36 = call noalias ptr @uprv_malloc_77(i64 noundef 65536) #12
  %37 = getelementptr inbounds nuw %"class.icu_77::(anonymous namespace)::MutableCodePointTrie", ptr %9, i32 0, i32 3
  store ptr %36, ptr %37, align 8, !tbaa !19
  %38 = getelementptr inbounds nuw %"class.icu_77::(anonymous namespace)::MutableCodePointTrie", ptr %9, i32 0, i32 0
  %39 = load ptr, ptr %38, align 8, !tbaa !13
  %40 = icmp eq ptr %39, null
  br i1 %40, label %45, label %41

41:                                               ; preds = %33
  %42 = getelementptr inbounds nuw %"class.icu_77::(anonymous namespace)::MutableCodePointTrie", ptr %9, i32 0, i32 3
  %43 = load ptr, ptr %42, align 8, !tbaa !19
  %44 = icmp eq ptr %43, null
  br i1 %44, label %45, label %47

45:                                               ; preds = %41, %33
  %46 = load ptr, ptr %8, align 8, !tbaa !7
  store i32 7, ptr %46, align 4, !tbaa !9
  br label %50

47:                                               ; preds = %41
  %48 = getelementptr inbounds nuw %"class.icu_77::(anonymous namespace)::MutableCodePointTrie", ptr %9, i32 0, i32 1
  store i32 4096, ptr %48, align 8, !tbaa !17
  %49 = getelementptr inbounds nuw %"class.icu_77::(anonymous namespace)::MutableCodePointTrie", ptr %9, i32 0, i32 4
  store i32 16384, ptr %49, align 8, !tbaa !20
  br label %50

50:                                               ; preds = %47, %45, %32
  ret void
}

; Function Attrs: inlinehint mustprogress nounwind uwtable
define internal noundef signext i8 @_ZL9U_FAILURE10UErrorCode(i32 noundef %0) #1 {
  %2 = alloca i32, align 4
  store i32 %0, ptr %2, align 4, !tbaa !9
  %3 = load i32, ptr %2, align 4, !tbaa !9
  %4 = icmp sgt i32 %3, 0
  %5 = zext i1 %4 to i8
  ret i8 %5
}

; Function Attrs: mustprogress uwtable
define ptr @umutablecptrie_open_77(i32 noundef %0, i32 noundef %1, ptr noundef %2) #0 personality ptr @__gxx_personality_v0 {
  %4 = alloca ptr, align 8
  %5 = alloca i32, align 4
  %6 = alloca i32, align 4
  %7 = alloca ptr, align 8
  %8 = alloca %"class.icu_77::LocalPointer", align 8
  %9 = alloca ptr, align 8
  %10 = alloca i1, align 1
  %11 = alloca ptr, align 8
  %12 = alloca i32, align 4
  %13 = alloca i32, align 4
  store i32 %0, ptr %5, align 4, !tbaa !3
  store i32 %1, ptr %6, align 4, !tbaa !3
  store ptr %2, ptr %7, align 8, !tbaa !7
  %14 = load ptr, ptr %7, align 8, !tbaa !7
  %15 = load i32, ptr %14, align 4, !tbaa !9
  %16 = call noundef signext i8 @_ZL9U_FAILURE10UErrorCode(i32 noundef %15)
  %17 = icmp ne i8 %16, 0
  br i1 %17, label %18, label %19

18:                                               ; preds = %3
  store ptr null, ptr %4, align 8
  br label %53

19:                                               ; preds = %3
  call void @llvm.lifetime.start.p0(i64 8, ptr %8) #11
  %20 = call noundef ptr @_ZN6icu_777UMemorynwEm(i64 noundef 69696) #11
  %21 = icmp eq ptr %20, null
  store i1 false, ptr %10, align 1
  br i1 %21, label %27, label %22

22:                                               ; preds = %19
  store ptr %20, ptr %9, align 8
  store i1 true, ptr %10, align 1
  %23 = load i32, ptr %5, align 4, !tbaa !3
  %24 = load i32, ptr %6, align 4, !tbaa !3
  %25 = load ptr, ptr %7, align 8, !tbaa !7
  invoke void @_ZN6icu_7712_GLOBAL__N_120MutableCodePointTrieC2EjjR10UErrorCode(ptr noundef nonnull align 8 dereferenceable(69696) %20, i32 noundef %23, i32 noundef %24, ptr noundef nonnull align 4 dereferenceable(4) %25)
          to label %26 unwind label %36

26:                                               ; preds = %22
  br label %27

27:                                               ; preds = %26, %19
  %28 = phi ptr [ %20, %26 ], [ null, %19 ]
  %29 = load ptr, ptr %7, align 8, !tbaa !7
  call void @_ZN6icu_7712LocalPointerINS_12_GLOBAL__N_120MutableCodePointTrieEEC2EPS2_R10UErrorCode(ptr noundef nonnull align 8 dereferenceable(8) %8, ptr noundef %28, ptr noundef nonnull align 4 dereferenceable(4) %29)
  %30 = load ptr, ptr %7, align 8, !tbaa !7
  %31 = load i32, ptr %30, align 4, !tbaa !9
  %32 = invoke noundef signext i8 @_ZL9U_FAILURE10UErrorCode(i32 noundef %31)
          to label %33 unwind label %44

33:                                               ; preds = %27
  %34 = icmp ne i8 %32, 0
  br i1 %34, label %35, label %48

35:                                               ; preds = %33
  store ptr null, ptr %4, align 8
  store i32 1, ptr %13, align 4
  br label %51

36:                                               ; preds = %22
  %37 = landingpad { ptr, i32 }
          cleanup
  %38 = extractvalue { ptr, i32 } %37, 0
  store ptr %38, ptr %11, align 8
  %39 = extractvalue { ptr, i32 } %37, 1
  store i32 %39, ptr %12, align 4
  %40 = load i1, ptr %10, align 1
  br i1 %40, label %41, label %43

41:                                               ; preds = %36
  %42 = load ptr, ptr %9, align 8
  call void @_ZN6icu_777UMemorydlEPv(ptr noundef %42) #11
  br label %43

43:                                               ; preds = %41, %36
  br label %52

44:                                               ; preds = %48, %27
  %45 = landingpad { ptr, i32 }
          cleanup
  %46 = extractvalue { ptr, i32 } %45, 0
  store ptr %46, ptr %11, align 8
  %47 = extractvalue { ptr, i32 } %45, 1
  store i32 %47, ptr %12, align 4
  call void @_ZN6icu_7712LocalPointerINS_12_GLOBAL__N_120MutableCodePointTrieEED2Ev(ptr noundef nonnull align 8 dereferenceable(8) %8) #11
  br label %52

48:                                               ; preds = %33
  %49 = invoke noundef ptr @_ZN6icu_7716LocalPointerBaseINS_12_GLOBAL__N_120MutableCodePointTrieEE6orphanEv(ptr noundef nonnull align 8 dereferenceable(8) %8)
          to label %50 unwind label %44

50:                                               ; preds = %48
  store ptr %49, ptr %4, align 8
  store i32 1, ptr %13, align 4
  br label %51

51:                                               ; preds = %50, %35
  call void @_ZN6icu_7712LocalPointerINS_12_GLOBAL__N_120MutableCodePointTrieEED2Ev(ptr noundef nonnull align 8 dereferenceable(8) %8) #11
  call void @llvm.lifetime.end.p0(i64 8, ptr %8) #11
  br label %53

52:                                               ; preds = %44, %43
  call void @llvm.lifetime.end.p0(i64 8, ptr %8) #11
  br label %55

53:                                               ; preds = %51, %18
  %54 = load ptr, ptr %4, align 8
  ret ptr %54

55:                                               ; preds = %52
  %56 = load ptr, ptr %11, align 8
  %57 = load i32, ptr %12, align 4
  %58 = insertvalue { ptr, i32 } poison, ptr %56, 0
  %59 = insertvalue { ptr, i32 } %58, i32 %57, 1
  resume { ptr, i32 } %59
}