; Function Attrs: mustprogress uwtable
define noundef ptr @umutablecptrie_open_77(i32 noundef %0, i32 noundef %1, ptr noundef captures(none) %2) local_unnamed_addr #0 personality ptr @__gxx_personality_v0 {
  %4 = load i32, ptr %2, align 4, !tbaa !3
  %5 = icmp slt i32 %4, 1
  br i1 %5, label %6, label %_ZN6icu_7712LocalPointerINS_12_GLOBAL__N_120MutableCodePointTrieEED2Ev.exit

6:                                                ; preds = %3
  %7 = tail call noundef ptr @_ZN6icu_777UMemorynwEm(i64 noundef 69696) #13
  %8 = icmp eq ptr %7, null
  br i1 %8, label %_ZN6icu_7712_GLOBAL__N_120MutableCodePointTrieC2EjjR10UErrorCode.exit, label %9

9:                                                ; preds = %6
  store ptr null, ptr %7, align 8, !tbaa !7
  %10 = getelementptr inbounds nuw i8, ptr %7, i64 8
  store i32 0, ptr %10, align 8, !tbaa !13
  %11 = getelementptr inbounds nuw i8, ptr %7, i64 12
  store i32 -1, ptr %11, align 4, !tbaa !14
  %12 = getelementptr inbounds nuw i8, ptr %7, i64 16
  %13 = getelementptr inbounds nuw i8, ptr %7, i64 24
  %14 = getelementptr inbounds nuw i8, ptr %7, i64 32
  tail call void @llvm.memset.p0.i64(ptr noundef nonnull align 8 dereferenceable(16) %12, i8 0, i64 16, i1 false)
  store i32 -1, ptr %14, align 8, !tbaa !15
  %15 = getelementptr inbounds nuw i8, ptr %7, i64 36
  store i32 %0, ptr %15, align 4, !tbaa !16
  %16 = getelementptr inbounds nuw i8, ptr %7, i64 40
  store i32 %0, ptr %16, align 8, !tbaa !17
  %17 = getelementptr inbounds nuw i8, ptr %7, i64 44
  store i32 %1, ptr %17, align 4, !tbaa !18
  %18 = getelementptr inbounds nuw i8, ptr %7, i64 48
  store i32 0, ptr %18, align 8, !tbaa !19
  %19 = getelementptr inbounds nuw i8, ptr %7, i64 52
  store i32 %0, ptr %19, align 4, !tbaa !20
  %20 = getelementptr inbounds nuw i8, ptr %7, i64 56
  store ptr null, ptr %20, align 8, !tbaa !21
  %21 = load i32, ptr %2, align 4, !tbaa !3
  %22 = icmp slt i32 %21, 1
  br i1 %22, label %23, label %.thread

23:                                               ; preds = %9
  %24 = invoke noalias dereferenceable_or_null(16384) ptr @uprv_malloc_77(i64 noundef 16384) #14
          to label %.noexc unwind label %34

.noexc:                                           ; preds = %23
  store ptr %24, ptr %7, align 8, !tbaa !7
  %25 = invoke noalias dereferenceable_or_null(65536) ptr @uprv_malloc_77(i64 noundef 65536) #14
          to label %.noexc12 unwind label %34

.noexc12:                                         ; preds = %.noexc
  store ptr %25, ptr %12, align 8, !tbaa !22
  %26 = load ptr, ptr %7, align 8, !tbaa !7
  %27 = icmp eq ptr %26, null
  %28 = icmp eq ptr %25, null
  %or.cond.i = or i1 %28, %27
  br i1 %or.cond.i, label %29, label %_ZN6icu_7712LocalPointerINS_12_GLOBAL__N_120MutableCodePointTrieEEC2EPS2_R10UErrorCode.exit

29:                                               ; preds = %.noexc12
  store i32 7, ptr %2, align 4, !tbaa !3
  br label %.thread

_ZN6icu_7712_GLOBAL__N_120MutableCodePointTrieC2EjjR10UErrorCode.exit: ; preds = %6
  %30 = load i32, ptr %2, align 4
  %31 = icmp sgt i32 %30, 0
  br i1 %31, label %_ZN6icu_7712LocalPointerINS_12_GLOBAL__N_120MutableCodePointTrieEED2Ev.exit, label %32

32:                                               ; preds = %_ZN6icu_7712_GLOBAL__N_120MutableCodePointTrieC2EjjR10UErrorCode.exit
  store i32 7, ptr %2, align 4, !tbaa !3
  br label %_ZN6icu_7712LocalPointerINS_12_GLOBAL__N_120MutableCodePointTrieEED2Ev.exit

_ZN6icu_7712LocalPointerINS_12_GLOBAL__N_120MutableCodePointTrieEEC2EPS2_R10UErrorCode.exit: ; preds = %.noexc12
  store i32 4096, ptr %10, align 8, !tbaa !13
  store i32 16384, ptr %13, align 8, !tbaa !23
  %.pre = load i32, ptr %2, align 4, !tbaa !3
  %33 = icmp slt i32 %.pre, 1
  br i1 %33, label %_ZN6icu_7712LocalPointerINS_12_GLOBAL__N_120MutableCodePointTrieEED2Ev.exit, label %.thread

34:                                               ; preds = %.noexc, %23
  %35 = landingpad { ptr, i32 }
          cleanup
  tail call void @_ZN6icu_777UMemorydlEPv(ptr noundef nonnull %7) #13
  resume { ptr, i32 } %35

.thread:                                          ; preds = %_ZN6icu_7712LocalPointerINS_12_GLOBAL__N_120MutableCodePointTrieEEC2EPS2_R10UErrorCode.exit, %9, %29
  %36 = load ptr, ptr %7, align 8, !tbaa !7
  invoke void @uprv_free_77(ptr noundef %36)
          to label %37 unwind label %43

37:                                               ; preds = %.thread
  %38 = getelementptr inbounds nuw i8, ptr %7, i64 16
  %39 = load ptr, ptr %38, align 8, !tbaa !22
  invoke void @uprv_free_77(ptr noundef %39)
          to label %40 unwind label %43

40:                                               ; preds = %37
  %41 = getelementptr inbounds nuw i8, ptr %7, i64 56
  %42 = load ptr, ptr %41, align 8, !tbaa !21
  invoke void @uprv_free_77(ptr noundef %42)
          to label %_ZN6icu_7712_GLOBAL__N_120MutableCodePointTrieD2Ev.exit.i unwind label %43

43:                                               ; preds = %40, %37, %.thread
  %44 = landingpad { ptr, i32 }
          catch ptr null
  %45 = extractvalue { ptr, i32 } %44, 0
  tail call void @__clang_call_terminate(ptr %45) #15
  unreachable

_ZN6icu_7712_GLOBAL__N_120MutableCodePointTrieD2Ev.exit.i: ; preds = %40
  tail call void @_ZN6icu_777UMemorydlEPv(ptr noundef nonnull %7) #13
  br label %_ZN6icu_7712LocalPointerINS_12_GLOBAL__N_120MutableCodePointTrieEED2Ev.exit

_ZN6icu_7712LocalPointerINS_12_GLOBAL__N_120MutableCodePointTrieEED2Ev.exit: ; preds = %32, %_ZN6icu_7712_GLOBAL__N_120MutableCodePointTrieC2EjjR10UErrorCode.exit, %_ZN6icu_7712LocalPointerINS_12_GLOBAL__N_120MutableCodePointTrieEEC2EPS2_R10UErrorCode.exit, %_ZN6icu_7712_GLOBAL__N_120MutableCodePointTrieD2Ev.exit.i, %3
  %.0 = phi ptr [ null, %3 ], [ null, %_ZN6icu_7712_GLOBAL__N_120MutableCodePointTrieD2Ev.exit.i ], [ %7, %_ZN6icu_7712LocalPointerINS_12_GLOBAL__N_120MutableCodePointTrieEEC2EPS2_R10UErrorCode.exit ], [ null, %_ZN6icu_7712_GLOBAL__N_120MutableCodePointTrieC2EjjR10UErrorCode.exit ], [ null, %32 ]
  ret ptr %.0
}